; Function Attrs: mustprogress uwtable
define dso_local noundef nonnull align 8 dereferenceable(32) ptr @_ZN4i18n12phonenumberspLERNSt7__cxx1112basic_stringIcSt11char_traitsIcESaIcEEERKNS0_12StringHolderE(ptr noundef nonnull returned align 8 dereferenceable(32) %0, ptr noundef nonnull readonly align 8 captures(none) dereferenceable(48) %1) local_unnamed_addr #0 {
  %.sroa.0.0.copyload.i.i = load ptr, ptr %1, align 8, !tbaa !31
  %.sroa.2.0..sroa_idx.i.i = getelementptr inbounds nuw i8, ptr %1, i64 8
  %.sroa.2.0.copyload.i.i = load i64, ptr %.sroa.2.0..sroa_idx.i.i, align 8, !tbaa !22
  %.not = icmp eq i64 %.sroa.2.0.copyload.i.i, 0
  br i1 %.not, label %10, label %3

3:                                                ; preds = %2
  %4 = tail call noundef i64 @strlen(ptr noundef nonnull dereferenceable(1) %.sroa.0.0.copyload.i.i) #19
  %5 = getelementptr inbounds nuw i8, ptr %0, i64 8
  %6 = load i64, ptr %5, align 8, !tbaa !10
  %7 = sub i64 4611686018427387903, %6
  %8 = icmp ult i64 %7, %4
  br i1 %8, label %9, label %.sink.split

9:                                                ; preds = %3
  tail call void @_ZSt20__throw_length_errorPKc(ptr noundef nonnull @.str.1) #21
  unreachable

10:                                               ; preds = %2
  %.not8 = icmp eq ptr %.sroa.0.0.copyload.i.i, null
  br i1 %.not8, label %12, label %.sink.split

.sink.split:                                      ; preds = %10, %3
  %.sink = phi i64 [ %4, %3 ], [ 0, %10 ]
  %11 = tail call noundef nonnull align 8 dereferenceable(32) ptr @_ZNSt7__cxx1112basic_stringIcSt11char_traitsIcESaIcEE9_M_appendEPKcm(ptr noundef nonnull align 8 dereferenceable(32) %0, ptr noundef nonnull %.sroa.0.0.copyload.i.i, i64 noundef %.sink)
  br label %12

12:                                               ; preds = %.sink.split, %10
  ret ptr %0
}